; Function Attrs: mustprogress nounwind uwtable
define void @_ZN2cv3MatD2Ev(ptr noundef nonnull align 8 dereferenceable(96) %0) unnamed_addr #9 align 2 personality ptr @__gxx_personality_v0 {
  invoke void @_ZN2cv3Mat7releaseEv(ptr noundef nonnull align 8 dereferenceable(96) %0)
          to label %2 unwind label %8

2:                                                ; preds = %1
  %3 = getelementptr inbounds nuw i8, ptr %0, i64 72
  %4 = load ptr, ptr %3, align 8, !tbaa !57
  %5 = getelementptr inbounds nuw i8, ptr %0, i64 80
  %.not = icmp eq ptr %4, %5
  br i1 %.not, label %7, label %6

6:                                                ; preds = %2
  invoke void @_ZN2cv8fastFreeEPv(ptr noundef %4)
          to label %7 unwind label %8

7:                                                ; preds = %6, %2
  ret void

8:                                                ; preds = %6, %1
  %9 = landingpad { ptr, i32 }
          catch ptr null
  %10 = extractvalue { ptr, i32 } %9, 0
  tail call void @__clang_call_terminate(ptr %10) #27
  unreachable
}